; Function Attrs: nounwind sspstrong uwtable
define internal void @vfio_msix_vector_release(ptr noundef %pdev, i32 noundef %nr) #0 {
entry:
  %_now.i.i = alloca %struct.timeval, align 8
  %err = alloca ptr, align 8
  %call.i = tail call ptr @object_dynamic_cast_assert(ptr noundef %pdev, ptr noundef nonnull @.str.22, ptr noundef nonnull @.str.23, i32 noundef 120, ptr noundef nonnull @__func__.VFIO_PCI) #23
  %msi_vectors = getelementptr inbounds nuw i8, ptr %call.i, i64 2864
  %0 = load ptr, ptr %msi_vectors, align 16
  %idxprom = zext i32 %nr to i64
  %arrayidx = getelementptr %struct.VFIOMSIVector, ptr %0, i64 %idxprom
  %name = getelementptr inbounds nuw i8, ptr %call.i, i64 2680
  %1 = load ptr, ptr %name, align 8
  call void @llvm.lifetime.start.p0(i64 16, ptr nonnull %_now.i.i)
  %2 = load i32, ptr @trace_events_enabled_count, align 4
  %tobool.i.i = icmp ne i32 %2, 0
  %3 = load i16, ptr @_TRACE_VFIO_MSIX_VECTOR_RELEASE_DSTATE, align 2
  %tobool4.i.i = icmp ne i16 %3, 0
  %or.cond.i.i = select i1 %tobool.i.i, i1 %tobool4.i.i, i1 false
  br i1 %or.cond.i.i, label %land.lhs.true5.i.i, label %trace_vfio_msix_vector_release.exit

land.lhs.true5.i.i:                               ; preds = %entry
  %4 = load i32, ptr @qemu_loglevel, align 4
  %and.i.i.i = and i32 %4, 32768
  %cmp.i.not.i.i = icmp eq i32 %and.i.i.i, 0
  br i1 %cmp.i.not.i.i, label %trace_vfio_msix_vector_release.exit, label %if.then.i.i

if.then.i.i:                                      ; preds = %land.lhs.true5.i.i
  %5 = load i8, ptr @message_with_timestamp, align 1
  %tobool7.i.i = trunc i8 %5 to i1
  br i1 %tobool7.i.i, label %if.then8.i.i, label %if.else.i.i

if.then8.i.i:                                     ; preds = %if.then.i.i
  %call9.i.i = call i32 @gettimeofday(ptr noundef nonnull %_now.i.i, ptr noundef null) #23
  %call10.i.i = tail call i32 @qemu_get_thread_id() #23
  %6 = load i64, ptr %_now.i.i, align 8
  %tv_usec.i.i = getelementptr inbounds nuw i8, ptr %_now.i.i, i64 8
  %7 = load i64, ptr %tv_usec.i.i, align 8
  tail call void (ptr, ...) @qemu_log(ptr noundef nonnull @.str.57, i32 noundef %call10.i.i, i64 noundef %6, i64 noundef %7, ptr noundef %1, i32 noundef %nr) #23
  br label %trace_vfio_msix_vector_release.exit

if.else.i.i:                                      ; preds = %if.then.i.i
  tail call void (ptr, ...) @qemu_log(ptr noundef nonnull @.str.58, ptr noundef %1, i32 noundef %nr) #23
  br label %trace_vfio_msix_vector_release.exit

trace_vfio_msix_vector_release.exit:              ; preds = %entry, %land.lhs.true5.i.i, %if.then8.i.i, %if.else.i.i
  call void @llvm.lifetime.end.p0(i64 16, ptr nonnull %_now.i.i)
  %virq = getelementptr inbounds nuw i8, ptr %arrayidx, i64 32
  %8 = load i32, ptr %virq, align 8
  %cmp = icmp sgt i32 %8, -1
  br i1 %cmp, label %if.then, label %if.end7

if.then:                                          ; preds = %trace_vfio_msix_vector_release.exit
  %vbasedev = getelementptr inbounds nuw i8, ptr %call.i, i64 2608
  %call1 = tail call i32 @event_notifier_get_fd(ptr noundef %arrayidx) #23
  store ptr null, ptr %err, align 8
  %call3 = call i32 @vfio_set_irq_signaling(ptr noundef nonnull %vbasedev, i32 noundef 2, i32 noundef %nr, i32 noundef 32, i32 noundef %call1, ptr noundef nonnull %err) #23
  %tobool.not = icmp eq i32 %call3, 0
  br i1 %tobool.not, label %if.end7, label %if.then4

if.then4:                                         ; preds = %if.then
  %9 = load ptr, ptr %err, align 8
  %10 = load ptr, ptr %name, align 8
  call void (ptr, ptr, ...) @error_reportf_err(ptr noundef %9, ptr noundef nonnull @.str.42, ptr noundef %10) #23
  br label %if.end7

if.end7:                                          ; preds = %if.then, %if.then4, %trace_vfio_msix_vector_release.exit
  ret void
}